target datalayout = "e-m:e-p270:32:32-p271:32:32-p272:64:64-i64:64-i128:128-f80:128-n8:16:32:64-S128"
target triple = "x86_64-pc-linux-gnu"

%struct.ast_state = type { %struct._PyOnceFlag, i32, ptr, ptr, ptr, ptr, ptr, ptr, ptr, ptr, ptr, ptr, ptr, ptr, ptr, ptr, ptr, ptr, ptr, ptr, ptr, ptr, ptr, ptr, ptr, ptr, ptr, ptr, ptr, ptr, ptr, ptr, ptr, ptr, ptr, ptr, ptr, ptr, ptr, ptr, ptr, ptr, ptr, ptr, ptr, ptr, ptr, ptr, ptr, ptr, ptr, ptr, ptr, ptr, ptr, ptr, ptr, ptr, ptr, ptr, ptr, ptr, ptr, ptr, ptr, ptr, ptr, ptr, ptr, ptr, ptr, ptr, ptr, ptr, ptr, ptr, ptr, ptr, ptr, ptr, ptr, ptr, ptr, ptr, ptr, ptr, ptr, ptr, ptr, ptr, ptr, ptr, ptr, ptr, ptr, ptr, ptr, ptr, ptr, ptr, ptr, ptr, ptr, ptr, ptr, ptr, ptr, ptr, ptr, ptr, ptr, ptr, ptr, ptr, ptr, ptr, ptr, ptr, ptr, ptr, ptr, ptr, ptr, ptr, ptr, ptr, ptr, ptr, ptr, ptr, ptr, ptr, ptr, ptr, ptr, ptr, ptr, ptr, ptr, ptr, ptr, ptr, ptr, ptr, ptr, ptr, ptr, ptr, ptr, ptr, ptr, ptr, ptr, ptr, ptr, ptr, ptr, ptr, ptr, ptr, ptr, ptr, ptr, ptr, ptr, ptr, ptr, ptr, ptr, ptr, ptr, ptr, ptr, ptr, ptr, ptr, ptr, ptr, ptr, ptr, ptr, ptr, ptr, ptr, ptr, ptr, ptr, ptr, ptr, ptr, ptr, ptr, ptr, ptr, ptr, ptr, ptr, ptr, ptr, ptr, ptr, ptr, ptr, ptr, ptr, ptr, ptr, ptr, ptr, ptr, ptr, ptr, ptr, ptr, ptr, ptr, ptr, ptr, ptr, ptr, ptr, ptr, ptr, ptr, ptr, ptr, ptr, ptr, ptr, ptr, ptr, ptr, ptr, ptr, ptr, ptr, ptr, ptr, ptr, ptr, ptr, ptr, ptr, ptr, ptr }
%struct._PyOnceFlag = type { i8 }

@PyExc_TypeError = external global ptr, align 8
@.str.589 = private unnamed_addr constant [43 x i8] c"expected some sort of operator, but got %R\00", align 1

; Function Attrs: nounwind uwtable
define internal i32 @obj2ast_operator(ptr noundef %0, ptr noundef %1, ptr noundef %2, ptr noundef %3) #0 {
  %5 = alloca i32, align 4
  %6 = alloca ptr, align 8
  %7 = alloca ptr, align 8
  %8 = alloca ptr, align 8
  %9 = alloca ptr, align 8
  %10 = alloca i32, align 4
  %11 = alloca i32, align 4
  store ptr %0, ptr %6, align 8, !tbaa !9
  store ptr %1, ptr %7, align 8, !tbaa !13
  store ptr %2, ptr %8, align 8, !tbaa !26
  store ptr %3, ptr %9, align 8, !tbaa !24
  call void @llvm.lifetime.start.p0(i64 4, ptr %10) #8
  %12 = load ptr, ptr %7, align 8, !tbaa !13
  %13 = load ptr, ptr %6, align 8, !tbaa !9
  %14 = getelementptr inbounds nuw %struct.ast_state, ptr %13, i32 0, i32 4
  %15 = load ptr, ptr %14, align 8, !tbaa !240
  %16 = call i32 @PyObject_IsInstance(ptr noundef %12, ptr noundef %15)
  store i32 %16, ptr %10, align 4, !tbaa !38
  %17 = load i32, ptr %10, align 4, !tbaa !38
  %18 = icmp eq i32 %17, -1
  br i1 %18, label %19, label %20

19:                                               ; preds = %4
  store i32 -1, ptr %5, align 4
  store i32 1, ptr %11, align 4
  br label %197

20:                                               ; preds = %4
  %21 = load i32, ptr %10, align 4, !tbaa !38
  %22 = icmp ne i32 %21, 0
  br i1 %22, label %23, label %25

23:                                               ; preds = %20
  %24 = load ptr, ptr %8, align 8, !tbaa !26
  store i32 1, ptr %24, align 4, !tbaa !38
  store i32 0, ptr %5, align 4
  store i32 1, ptr %11, align 4
  br label %197

25:                                               ; preds = %20
  %26 = load ptr, ptr %7, align 8, !tbaa !13
  %27 = load ptr, ptr %6, align 8, !tbaa !9
  %28 = getelementptr inbounds nuw %struct.ast_state, ptr %27, i32 0, i32 121
  %29 = load ptr, ptr %28, align 8, !tbaa !241
  %30 = call i32 @PyObject_IsInstance(ptr noundef %26, ptr noundef %29)
  store i32 %30, ptr %10, align 4, !tbaa !38
  %31 = load i32, ptr %10, align 4, !tbaa !38
  %32 = icmp eq i32 %31, -1
  br i1 %32, label %33, label %34

33:                                               ; preds = %25
  store i32 -1, ptr %5, align 4
  store i32 1, ptr %11, align 4
  br label %197

34:                                               ; preds = %25
  %35 = load i32, ptr %10, align 4, !tbaa !38
  %36 = icmp ne i32 %35, 0
  br i1 %36, label %37, label %39

37:                                               ; preds = %34
  %38 = load ptr, ptr %8, align 8, !tbaa !26
  store i32 2, ptr %38, align 4, !tbaa !38
  store i32 0, ptr %5, align 4
  store i32 1, ptr %11, align 4
  br label %197

39:                                               ; preds = %34
  %40 = load ptr, ptr %7, align 8, !tbaa !13
  %41 = load ptr, ptr %6, align 8, !tbaa !9
  %42 = getelementptr inbounds nuw %struct.ast_state, ptr %41, i32 0, i32 94
  %43 = load ptr, ptr %42, align 8, !tbaa !242
  %44 = call i32 @PyObject_IsInstance(ptr noundef %40, ptr noundef %43)
  store i32 %44, ptr %10, align 4, !tbaa !38
  %45 = load i32, ptr %10, align 4, !tbaa !38
  %46 = icmp eq i32 %45, -1
  br i1 %46, label %47, label %48

47:                                               ; preds = %39
  store i32 -1, ptr %5, align 4
  store i32 1, ptr %11, align 4
  br label %197

48:                                               ; preds = %39
  %49 = load i32, ptr %10, align 4, !tbaa !38
  %50 = icmp ne i32 %49, 0
  br i1 %50, label %51, label %53

51:                                               ; preds = %48
  %52 = load ptr, ptr %8, align 8, !tbaa !26
  store i32 3, ptr %52, align 4, !tbaa !38
  store i32 0, ptr %5, align 4
  store i32 1, ptr %11, align 4
  br label %197

53:                                               ; preds = %48
  %54 = load ptr, ptr %7, align 8, !tbaa !13
  %55 = load ptr, ptr %6, align 8, !tbaa !9
  %56 = getelementptr inbounds nuw %struct.ast_state, ptr %55, i32 0, i32 80
  %57 = load ptr, ptr %56, align 8, !tbaa !243
  %58 = call i32 @PyObject_IsInstance(ptr noundef %54, ptr noundef %57)
  store i32 %58, ptr %10, align 4, !tbaa !38
  %59 = load i32, ptr %10, align 4, !tbaa !38
  %60 = icmp eq i32 %59, -1
  br i1 %60, label %61, label %62

61:                                               ; preds = %53
  store i32 -1, ptr %5, align 4
  store i32 1, ptr %11, align 4
  br label %197

62:                                               ; preds = %53
  %63 = load i32, ptr %10, align 4, !tbaa !38
  %64 = icmp ne i32 %63, 0
  br i1 %64, label %65, label %67

65:                                               ; preds = %62
  %66 = load ptr, ptr %8, align 8, !tbaa !26
  store i32 4, ptr %66, align 4, !tbaa !38
  store i32 0, ptr %5, align 4
  store i32 1, ptr %11, align 4
  br label %197

67:                                               ; preds = %62
  %68 = load ptr, ptr %7, align 8, !tbaa !13
  %69 = load ptr, ptr %6, align 8, !tbaa !9
  %70 = getelementptr inbounds nuw %struct.ast_state, ptr %69, i32 0, i32 36
  %71 = load ptr, ptr %70, align 8, !tbaa !244
  %72 = call i32 @PyObject_IsInstance(ptr noundef %68, ptr noundef %71)
  store i32 %72, ptr %10, align 4, !tbaa !38
  %73 = load i32, ptr %10, align 4, !tbaa !38
  %74 = icmp eq i32 %73, -1
  br i1 %74, label %75, label %76

75:                                               ; preds = %67
  store i32 -1, ptr %5, align 4
  store i32 1, ptr %11, align 4
  br label %197

76:                                               ; preds = %67
  %77 = load i32, ptr %10, align 4, !tbaa !38
  %78 = icmp ne i32 %77, 0
  br i1 %78, label %79, label %81

79:                                               ; preds = %76
  %80 = load ptr, ptr %8, align 8, !tbaa !26
  store i32 5, ptr %80, align 4, !tbaa !38
  store i32 0, ptr %5, align 4
  store i32 1, ptr %11, align 4
  br label %197

81:                                               ; preds = %76
  %82 = load ptr, ptr %7, align 8, !tbaa !13
  %83 = load ptr, ptr %6, align 8, !tbaa !9
  %84 = getelementptr inbounds nuw %struct.ast_state, ptr %83, i32 0, i32 91
  %85 = load ptr, ptr %84, align 8, !tbaa !245
  %86 = call i32 @PyObject_IsInstance(ptr noundef %82, ptr noundef %85)
  store i32 %86, ptr %10, align 4, !tbaa !38
  %87 = load i32, ptr %10, align 4, !tbaa !38
  %88 = icmp eq i32 %87, -1
  br i1 %88, label %89, label %90

89:                                               ; preds = %81
  store i32 -1, ptr %5, align 4
  store i32 1, ptr %11, align 4
  br label %197

90:                                               ; preds = %81
  %91 = load i32, ptr %10, align 4, !tbaa !38
  %92 = icmp ne i32 %91, 0
  br i1 %92, label %93, label %95

93:                                               ; preds = %90
  %94 = load ptr, ptr %8, align 8, !tbaa !26
  store i32 6, ptr %94, align 4, !tbaa !38
  store i32 0, ptr %5, align 4
  store i32 1, ptr %11, align 4
  br label %197

95:                                               ; preds = %90
  %96 = load ptr, ptr %7, align 8, !tbaa !13
  %97 = load ptr, ptr %6, align 8, !tbaa !9
  %98 = getelementptr inbounds nuw %struct.ast_state, ptr %97, i32 0, i32 109
  %99 = load ptr, ptr %98, align 8, !tbaa !246
  %100 = call i32 @PyObject_IsInstance(ptr noundef %96, ptr noundef %99)
  store i32 %100, ptr %10, align 4, !tbaa !38
  %101 = load i32, ptr %10, align 4, !tbaa !38
  %102 = icmp eq i32 %101, -1
  br i1 %102, label %103, label %104

103:                                              ; preds = %95
  store i32 -1, ptr %5, align 4
  store i32 1, ptr %11, align 4
  br label %197

104:                                              ; preds = %95
  %105 = load i32, ptr %10, align 4, !tbaa !38
  %106 = icmp ne i32 %105, 0
  br i1 %106, label %107, label %109

107:                                              ; preds = %104
  %108 = load ptr, ptr %8, align 8, !tbaa !26
  store i32 7, ptr %108, align 4, !tbaa !38
  store i32 0, ptr %5, align 4
  store i32 1, ptr %11, align 4
  br label %197

109:                                              ; preds = %104
  %110 = load ptr, ptr %7, align 8, !tbaa !13
  %111 = load ptr, ptr %6, align 8, !tbaa !9
  %112 = getelementptr inbounds nuw %struct.ast_state, ptr %111, i32 0, i32 69
  %113 = load ptr, ptr %112, align 8, !tbaa !247
  %114 = call i32 @PyObject_IsInstance(ptr noundef %110, ptr noundef %113)
  store i32 %114, ptr %10, align 4, !tbaa !38
  %115 = load i32, ptr %10, align 4, !tbaa !38
  %116 = icmp eq i32 %115, -1
  br i1 %116, label %117, label %118

117:                                              ; preds = %109
  store i32 -1, ptr %5, align 4
  store i32 1, ptr %11, align 4
  br label %197

118:                                              ; preds = %109
  %119 = load i32, ptr %10, align 4, !tbaa !38
  %120 = icmp ne i32 %119, 0
  br i1 %120, label %121, label %123

121:                                              ; preds = %118
  %122 = load ptr, ptr %8, align 8, !tbaa !26
  store i32 8, ptr %122, align 4, !tbaa !38
  store i32 0, ptr %5, align 4
  store i32 1, ptr %11, align 4
  br label %197

123:                                              ; preds = %118
  %124 = load ptr, ptr %7, align 8, !tbaa !13
  %125 = load ptr, ptr %6, align 8, !tbaa !9
  %126 = getelementptr inbounds nuw %struct.ast_state, ptr %125, i32 0, i32 111
  %127 = load ptr, ptr %126, align 8, !tbaa !248
  %128 = call i32 @PyObject_IsInstance(ptr noundef %124, ptr noundef %127)
  store i32 %128, ptr %10, align 4, !tbaa !38
  %129 = load i32, ptr %10, align 4, !tbaa !38
  %130 = icmp eq i32 %129, -1
  br i1 %130, label %131, label %132

131:                                              ; preds = %123
  store i32 -1, ptr %5, align 4
  store i32 1, ptr %11, align 4
  br label %197

132:                                              ; preds = %123
  %133 = load i32, ptr %10, align 4, !tbaa !38
  %134 = icmp ne i32 %133, 0
  br i1 %134, label %135, label %137

135:                                              ; preds = %132
  %136 = load ptr, ptr %8, align 8, !tbaa !26
  store i32 9, ptr %136, align 4, !tbaa !38
  store i32 0, ptr %5, align 4
  store i32 1, ptr %11, align 4
  br label %197

137:                                              ; preds = %132
  %138 = load ptr, ptr %7, align 8, !tbaa !13
  %139 = load ptr, ptr %6, align 8, !tbaa !9
  %140 = getelementptr inbounds nuw %struct.ast_state, ptr %139, i32 0, i32 20
  %141 = load ptr, ptr %140, align 8, !tbaa !249
  %142 = call i32 @PyObject_IsInstance(ptr noundef %138, ptr noundef %141)
  store i32 %142, ptr %10, align 4, !tbaa !38
  %143 = load i32, ptr %10, align 4, !tbaa !38
  %144 = icmp eq i32 %143, -1
  br i1 %144, label %145, label %146

145:                                              ; preds = %137
  store i32 -1, ptr %5, align 4
  store i32 1, ptr %11, align 4
  br label %197

146:                                              ; preds = %137
  %147 = load i32, ptr %10, align 4, !tbaa !38
  %148 = icmp ne i32 %147, 0
  br i1 %148, label %149, label %151

149:                                              ; preds = %146
  %150 = load ptr, ptr %8, align 8, !tbaa !26
  store i32 10, ptr %150, align 4, !tbaa !38
  store i32 0, ptr %5, align 4
  store i32 1, ptr %11, align 4
  br label %197

151:                                              ; preds = %146
  %152 = load ptr, ptr %7, align 8, !tbaa !13
  %153 = load ptr, ptr %6, align 8, !tbaa !9
  %154 = getelementptr inbounds nuw %struct.ast_state, ptr %153, i32 0, i32 22
  %155 = load ptr, ptr %154, align 8, !tbaa !250
  %156 = call i32 @PyObject_IsInstance(ptr noundef %152, ptr noundef %155)
  store i32 %156, ptr %10, align 4, !tbaa !38
  %157 = load i32, ptr %10, align 4, !tbaa !38
  %158 = icmp eq i32 %157, -1
  br i1 %158, label %159, label %160

159:                                              ; preds = %151
  store i32 -1, ptr %5, align 4
  store i32 1, ptr %11, align 4
  br label %197

160:                                              ; preds = %151
  %161 = load i32, ptr %10, align 4, !tbaa !38
  %162 = icmp ne i32 %161, 0
  br i1 %162, label %163, label %165

163:                                              ; preds = %160
  %164 = load ptr, ptr %8, align 8, !tbaa !26
  store i32 11, ptr %164, align 4, !tbaa !38
  store i32 0, ptr %5, align 4
  store i32 1, ptr %11, align 4
  br label %197

165:                                              ; preds = %160
  %166 = load ptr, ptr %7, align 8, !tbaa !13
  %167 = load ptr, ptr %6, align 8, !tbaa !9
  %168 = getelementptr inbounds nuw %struct.ast_state, ptr %167, i32 0, i32 18
  %169 = load ptr, ptr %168, align 8, !tbaa !251
  %170 = call i32 @PyObject_IsInstance(ptr noundef %166, ptr noundef %169)
  store i32 %170, ptr %10, align 4, !tbaa !38
  %171 = load i32, ptr %10, align 4, !tbaa !38
  %172 = icmp eq i32 %171, -1
  br i1 %172, label %173, label %174

173:                                              ; preds = %165
  store i32 -1, ptr %5, align 4
  store i32 1, ptr %11, align 4
  br label %197

174:                                              ; preds = %165
  %175 = load i32, ptr %10, align 4, !tbaa !38
  %176 = icmp ne i32 %175, 0
  br i1 %176, label %177, label %179

177:                                              ; preds = %174
  %178 = load ptr, ptr %8, align 8, !tbaa !26
  store i32 12, ptr %178, align 4, !tbaa !38
  store i32 0, ptr %5, align 4
  store i32 1, ptr %11, align 4
  br label %197

179:                                              ; preds = %174
  %180 = load ptr, ptr %7, align 8, !tbaa !13
  %181 = load ptr, ptr %6, align 8, !tbaa !9
  %182 = getelementptr inbounds nuw %struct.ast_state, ptr %181, i32 0, i32 43
  %183 = load ptr, ptr %182, align 8, !tbaa !252
  %184 = call i32 @PyObject_IsInstance(ptr noundef %180, ptr noundef %183)
  store i32 %184, ptr %10, align 4, !tbaa !38
  %185 = load i32, ptr %10, align 4, !tbaa !38
  %186 = icmp eq i32 %185, -1
  br i1 %186, label %187, label %188

187:                                              ; preds = %179
  store i32 -1, ptr %5, align 4
  store i32 1, ptr %11, align 4
  br label %197

188:                                              ; preds = %179
  %189 = load i32, ptr %10, align 4, !tbaa !38
  %190 = icmp ne i32 %189, 0
  br i1 %190, label %191, label %193

191:                                              ; preds = %188
  %192 = load ptr, ptr %8, align 8, !tbaa !26
  store i32 13, ptr %192, align 4, !tbaa !38
  store i32 0, ptr %5, align 4
  store i32 1, ptr %11, align 4
  br label %197

193:                                              ; preds = %188
  %194 = load ptr, ptr @PyExc_TypeError, align 8, !tbaa !13
  %195 = load ptr, ptr %7, align 8, !tbaa !13
  %196 = call ptr (ptr, ptr, ...) @PyErr_Format(ptr noundef %194, ptr noundef @.str.589, ptr noundef %195)
  store i32 -1, ptr %5, align 4
  store i32 1, ptr %11, align 4
  br label %197

197:                                              ; preds = %193, %191, %187, %177, %173, %163, %159, %149, %145, %135, %131, %121, %117, %107, %103, %93, %89, %79, %75, %65, %61, %51, %47, %37, %33, %23, %19
  call void @llvm.lifetime.end.p0(i64 4, ptr %10) #8
  %198 = load i32, ptr %5, align 4
  ret i32 %198
}