; Function Attrs: nounwind uwtable
define internal fastcc range(i32 -1, 1) i32 @obj2ast_operator(ptr noundef nonnull readonly captures(none) %0, ptr noundef %1, ptr noundef nonnull writeonly captures(none) %2) unnamed_addr #0 {
  %4 = getelementptr inbounds nuw i8, ptr %0, i64 24
  %5 = load ptr, ptr %4, align 8, !tbaa !220
  %6 = tail call i32 @PyObject_IsInstance(ptr noundef %1, ptr noundef %5) #8
  switch i32 %6, label %7 [
    i32 -1, label %71
    i32 0, label %8
  ]

7:                                                ; preds = %3
  store i32 1, ptr %2, align 4, !tbaa !402
  br label %71

8:                                                ; preds = %3
  %9 = getelementptr inbounds nuw i8, ptr %0, i64 960
  %10 = load ptr, ptr %9, align 8, !tbaa !221
  %11 = tail call i32 @PyObject_IsInstance(ptr noundef %1, ptr noundef %10) #8
  switch i32 %11, label %12 [
    i32 -1, label %71
    i32 0, label %13
  ]

12:                                               ; preds = %8
  store i32 2, ptr %2, align 4, !tbaa !402
  br label %71

13:                                               ; preds = %8
  %14 = getelementptr inbounds nuw i8, ptr %0, i64 744
  %15 = load ptr, ptr %14, align 8, !tbaa !222
  %16 = tail call i32 @PyObject_IsInstance(ptr noundef %1, ptr noundef %15) #8
  switch i32 %16, label %17 [
    i32 -1, label %71
    i32 0, label %18
  ]

17:                                               ; preds = %13
  store i32 3, ptr %2, align 4, !tbaa !402
  br label %71

18:                                               ; preds = %13
  %19 = getelementptr inbounds nuw i8, ptr %0, i64 632
  %20 = load ptr, ptr %19, align 8, !tbaa !223
  %21 = tail call i32 @PyObject_IsInstance(ptr noundef %1, ptr noundef %20) #8
  switch i32 %21, label %22 [
    i32 -1, label %71
    i32 0, label %23
  ]

22:                                               ; preds = %18
  store i32 4, ptr %2, align 4, !tbaa !402
  br label %71

23:                                               ; preds = %18
  %24 = getelementptr inbounds nuw i8, ptr %0, i64 280
  %25 = load ptr, ptr %24, align 8, !tbaa !224
  %26 = tail call i32 @PyObject_IsInstance(ptr noundef %1, ptr noundef %25) #8
  switch i32 %26, label %27 [
    i32 -1, label %71
    i32 0, label %28
  ]

27:                                               ; preds = %23
  store i32 5, ptr %2, align 4, !tbaa !402
  br label %71

28:                                               ; preds = %23
  %29 = getelementptr inbounds nuw i8, ptr %0, i64 720
  %30 = load ptr, ptr %29, align 8, !tbaa !225
  %31 = tail call i32 @PyObject_IsInstance(ptr noundef %1, ptr noundef %30) #8
  switch i32 %31, label %32 [
    i32 -1, label %71
    i32 0, label %33
  ]

32:                                               ; preds = %28
  store i32 6, ptr %2, align 4, !tbaa !402
  br label %71

33:                                               ; preds = %28
  %34 = getelementptr inbounds nuw i8, ptr %0, i64 864
  %35 = load ptr, ptr %34, align 8, !tbaa !226
  %36 = tail call i32 @PyObject_IsInstance(ptr noundef %1, ptr noundef %35) #8
  switch i32 %36, label %37 [
    i32 -1, label %71
    i32 0, label %38
  ]

37:                                               ; preds = %33
  store i32 7, ptr %2, align 4, !tbaa !402
  br label %71

38:                                               ; preds = %33
  %39 = getelementptr inbounds nuw i8, ptr %0, i64 544
  %40 = load ptr, ptr %39, align 8, !tbaa !227
  %41 = tail call i32 @PyObject_IsInstance(ptr noundef %1, ptr noundef %40) #8
  switch i32 %41, label %42 [
    i32 -1, label %71
    i32 0, label %43
  ]

42:                                               ; preds = %38
  store i32 8, ptr %2, align 4, !tbaa !402
  br label %71

43:                                               ; preds = %38
  %44 = getelementptr inbounds nuw i8, ptr %0, i64 880
  %45 = load ptr, ptr %44, align 8, !tbaa !228
  %46 = tail call i32 @PyObject_IsInstance(ptr noundef %1, ptr noundef %45) #8
  switch i32 %46, label %47 [
    i32 -1, label %71
    i32 0, label %48
  ]

47:                                               ; preds = %43
  store i32 9, ptr %2, align 4, !tbaa !402
  br label %71

48:                                               ; preds = %43
  %49 = getelementptr inbounds nuw i8, ptr %0, i64 152
  %50 = load ptr, ptr %49, align 8, !tbaa !229
  %51 = tail call i32 @PyObject_IsInstance(ptr noundef %1, ptr noundef %50) #8
  switch i32 %51, label %52 [
    i32 -1, label %71
    i32 0, label %53
  ]

52:                                               ; preds = %48
  store i32 10, ptr %2, align 4, !tbaa !402
  br label %71

53:                                               ; preds = %48
  %54 = getelementptr inbounds nuw i8, ptr %0, i64 168
  %55 = load ptr, ptr %54, align 8, !tbaa !230
  %56 = tail call i32 @PyObject_IsInstance(ptr noundef %1, ptr noundef %55) #8
  switch i32 %56, label %57 [
    i32 -1, label %71
    i32 0, label %58
  ]

57:                                               ; preds = %53
  store i32 11, ptr %2, align 4, !tbaa !402
  br label %71

58:                                               ; preds = %53
  %59 = getelementptr inbounds nuw i8, ptr %0, i64 136
  %60 = load ptr, ptr %59, align 8, !tbaa !231
  %61 = tail call i32 @PyObject_IsInstance(ptr noundef %1, ptr noundef %60) #8
  switch i32 %61, label %62 [
    i32 -1, label %71
    i32 0, label %63
  ]

62:                                               ; preds = %58
  store i32 12, ptr %2, align 4, !tbaa !402
  br label %71

63:                                               ; preds = %58
  %64 = getelementptr inbounds nuw i8, ptr %0, i64 336
  %65 = load ptr, ptr %64, align 8, !tbaa !232
  %66 = tail call i32 @PyObject_IsInstance(ptr noundef %1, ptr noundef %65) #8
  switch i32 %66, label %67 [
    i32 -1, label %71
    i32 0, label %68
  ]

67:                                               ; preds = %63
  store i32 13, ptr %2, align 4, !tbaa !402
  br label %71

68:                                               ; preds = %63
  %69 = load ptr, ptr @PyExc_TypeError, align 8, !tbaa !4
  %70 = tail call ptr (ptr, ptr, ...) @PyErr_Format(ptr noundef %69, ptr noundef nonnull @.str.589, ptr noundef %1) #8
  br label %71

71:                                               ; preds = %63, %58, %53, %48, %43, %38, %33, %28, %23, %18, %13, %8, %3, %68, %67, %62, %57, %52, %47, %42, %37, %32, %27, %22, %17, %12, %7
  %.0 = phi i32 [ 0, %7 ], [ 0, %12 ], [ 0, %17 ], [ 0, %22 ], [ 0, %27 ], [ 0, %32 ], [ 0, %37 ], [ 0, %42 ], [ 0, %47 ], [ 0, %52 ], [ 0, %57 ], [ 0, %62 ], [ 0, %67 ], [ -1, %68 ], [ %6, %3 ], [ %11, %8 ], [ %16, %13 ], [ %21, %18 ], [ %26, %23 ], [ %31, %28 ], [ %36, %33 ], [ %41, %38 ], [ %46, %43 ], [ %51, %48 ], [ %56, %53 ], [ %61, %58 ], [ %66, %63 ]
  ret i32 %.0
}